; Function Attrs: mustprogress uwtable
define noundef i32 @_ZN6icu_7522RuleBasedBreakIterator9followingEi(ptr noundef nonnull align 8 dereferenceable(745) %this, i32 noundef %startPos) unnamed_addr #1 align 2 {
entry:
  %status = alloca i32, align 4
  %cmp = icmp slt i32 %startPos, 0
  br i1 %cmp, label %if.then, label %if.end

if.then:                                          ; preds = %entry
  %vtable = load ptr, ptr %this, align 8
  %vfn = getelementptr inbounds i8, ptr %vtable, i64 80
  %0 = load ptr, ptr %vfn, align 8
  %call = tail call noundef i32 %0(ptr noundef nonnull align 8 dereferenceable(745) %this)
  br label %return

if.end:                                           ; preds = %entry
  %fText = getelementptr inbounds i8, ptr %this, i64 480
  %conv = zext nneg i32 %startPos to i64
  tail call void @utext_setNativeIndex_75(ptr noundef nonnull %fText, i64 noundef %conv)
  %call3 = tail call i64 @utext_getNativeIndex_75(ptr noundef nonnull %fText)
  %conv4 = trunc i64 %call3 to i32
  store i32 0, ptr %status, align 4
  %fBreakCache = getelementptr inbounds i8, ptr %this, i64 648
  %1 = load ptr, ptr %fBreakCache, align 8
  call void @_ZN6icu_7522RuleBasedBreakIterator10BreakCache9followingEiR10UErrorCode(ptr noundef nonnull align 8 dereferenceable(832) %1, i32 noundef %conv4, ptr noundef nonnull align 4 dereferenceable(4) %status)
  %fDone = getelementptr inbounds i8, ptr %this, i64 728
  %2 = load i8, ptr %fDone, align 8
  %3 = and i8 %2, 1
  %tobool.not = icmp eq i8 %3, 0
  %fPosition = getelementptr inbounds i8, ptr %this, i64 636
  %4 = load i32, ptr %fPosition, align 4
  %cond = select i1 %tobool.not, i32 %4, i32 -1
  br label %return

return:                                           ; preds = %if.end, %if.then
  %retval.0 = phi i32 [ %call, %if.then ], [ %cond, %if.end ]
  ret i32 %retval.0
}